; Function Attrs: nounwind uwtable
define noalias nonnull ptr @l_Lean_Compiler_initFn____x40_Lean_Compiler_ImplementedByAttr___hyg_3____lambda__6___boxed(ptr noundef %0, ptr noundef %1, ptr noundef %2) #0 {
  tail call void @lean_inc_heartbeat() #4
  %4 = tail call noalias ptr @mi_malloc_small(i64 noundef 24) #4
  %5 = icmp eq ptr %4, null
  br i1 %5, label %6, label %l_Lean_Compiler_initFn____x40_Lean_Compiler_ImplementedByAttr___hyg_3____lambda__6.exit

6:                                                ; preds = %3
  tail call void @lean_internal_panic_out_of_memory() #5
  unreachable

l_Lean_Compiler_initFn____x40_Lean_Compiler_ImplementedByAttr___hyg_3____lambda__6.exit: ; preds = %3
  %7 = getelementptr inbounds nuw i8, ptr %4, i64 4
  store i32 1, ptr %4, align 4, !tbaa !8
  store i32 131096, ptr %7, align 4
  %8 = getelementptr inbounds nuw i8, ptr %4, i64 8
  store ptr inttoptr (i64 1 to ptr), ptr %8, align 8, !tbaa !4
  %9 = getelementptr inbounds nuw i8, ptr %4, i64 16
  store ptr %2, ptr %9, align 8, !tbaa !4
  %10 = ptrtoint ptr %1 to i64
  %11 = and i64 %10, 1
  %.not = icmp eq i64 %11, 0
  br i1 %.not, label %12, label %lean_dec.exit6

12:                                               ; preds = %l_Lean_Compiler_initFn____x40_Lean_Compiler_ImplementedByAttr___hyg_3____lambda__6.exit
  %13 = load i32, ptr %1, align 4, !tbaa !8
  %14 = icmp sgt i32 %13, 1
  br i1 %14, label %15, label %17, !prof !11

15:                                               ; preds = %12
  %16 = add nsw i32 %13, -1
  store i32 %16, ptr %1, align 4, !tbaa !8
  br label %lean_dec.exit6

17:                                               ; preds = %12
  %.not.i = icmp eq i32 %13, 0
  br i1 %.not.i, label %lean_dec.exit6, label %18

18:                                               ; preds = %17
  tail call void @lean_dec_ref_cold(ptr noundef nonnull %1) #4
  br label %lean_dec.exit6

lean_dec.exit6:                                   ; preds = %18, %17, %15, %l_Lean_Compiler_initFn____x40_Lean_Compiler_ImplementedByAttr___hyg_3____lambda__6.exit
  %19 = ptrtoint ptr %0 to i64
  %20 = and i64 %19, 1
  %.not9 = icmp eq i64 %20, 0
  br i1 %.not9, label %21, label %lean_dec.exit

21:                                               ; preds = %lean_dec.exit6
  %22 = load i32, ptr %0, align 4, !tbaa !8
  %23 = icmp sgt i32 %22, 1
  br i1 %23, label %24, label %26, !prof !11

24:                                               ; preds = %21
  %25 = add nsw i32 %22, -1
  store i32 %25, ptr %0, align 4, !tbaa !8
  br label %lean_dec.exit

26:                                               ; preds = %21
  %.not.i7 = icmp eq i32 %22, 0
  br i1 %.not.i7, label %lean_dec.exit, label %27

27:                                               ; preds = %26
  tail call void @lean_dec_ref_cold(ptr noundef nonnull %0) #4
  br label %lean_dec.exit

lean_dec.exit:                                    ; preds = %27, %26, %24, %lean_dec.exit6
  ret ptr %4
}